; ModuleID = 'source-C-CXX/6/1174.cpp'
source_filename = "source-C-CXX/6/1174.cpp"
target datalayout = "e-m:e-p270:32:32-p271:32:32-p272:64:64-i64:64-f80:128-n8:16:32:64-S128"
target triple = "x86_64-pc-linux-gnu"

%"class.std::ios_base::Init" = type { i8 }
%"class.std::basic_istream" = type { i32 (...)**, i64, %"class.std::basic_ios" }
%"class.std::basic_ios" = type { %"class.std::ios_base", %"class.std::basic_ostream"*, i8, i8, %"class.std::basic_streambuf"*, %"class.std::ctype"*, %"class.std::num_put"*, %"class.std::num_get"* }
%"class.std::ios_base" = type { i32 (...)**, i64, i64, i32, i32, i32, %"struct.std::ios_base::_Callback_list"*, %"struct.std::ios_base::_Words", [8 x %"struct.std::ios_base::_Words"], i32, %"struct.std::ios_base::_Words"*, %"class.std::locale" }
%"struct.std::ios_base::_Callback_list" = type { %"struct.std::ios_base::_Callback_list"*, void (i32, %"class.std::ios_base"*, i32)*, i32, i32 }
%"struct.std::ios_base::_Words" = type { i8*, i64 }
%"class.std::locale" = type { %"class.std::locale::_Impl"* }
%"class.std::locale::_Impl" = type { i32, %"class.std::locale::facet"**, i64, %"class.std::locale::facet"**, i8** }
%"class.std::locale::facet" = type <{ i32 (...)**, i32, [4 x i8] }>
%"class.std::basic_ostream" = type { i32 (...)**, %"class.std::basic_ios" }
%"class.std::basic_streambuf" = type { i32 (...)**, i8*, i8*, i8*, i8*, i8*, i8*, %"class.std::locale" }
%"class.std::ctype" = type <{ %"class.std::locale::facet.base", [4 x i8], %struct.__locale_struct*, i8, [7 x i8], i32*, i32*, i16*, i8, [256 x i8], [256 x i8], i8, [6 x i8] }>
%"class.std::locale::facet.base" = type <{ i32 (...)**, i32 }>
%struct.__locale_struct = type { [13 x %struct.__locale_data*], i16*, i32*, i32*, [13 x i8*] }
%struct.__locale_data = type opaque
%"class.std::num_put" = type { %"class.std::locale::facet.base", [4 x i8] }
%"class.std::num_get" = type { %"class.std::locale::facet.base", [4 x i8] }

@_ZStL8__ioinit = internal global %"class.std::ios_base::Init" zeroinitializer, align 1
@__dso_handle = external hidden global i8
@_ZSt3cin = external global %"class.std::basic_istream", align 8
@_ZSt4cout = external global %"class.std::basic_ostream", align 8
@llvm.global_ctors = appending global [1 x { i32, void ()*, i8* }] [{ i32, void ()*, i8* } { i32 65535, void ()* @_GLOBAL__sub_I_1174.cpp, i8* null }]

declare void @_ZNSt8ios_base4InitC1Ev(%"class.std::ios_base::Init"* nonnull align 1 dereferenceable(1)) unnamed_addr #0

; Function Attrs: nounwind
declare void @_ZNSt8ios_base4InitD1Ev(%"class.std::ios_base::Init"* nonnull align 1 dereferenceable(1)) unnamed_addr #1

; Function Attrs: nofree nounwind
declare i32 @__cxa_atexit(void (i8*)*, i8*, i8*) local_unnamed_addr #2

; Function Attrs: mustprogress norecurse sspstrong uwtable
define dso_local i32 @main() local_unnamed_addr #3 {
  %1 = alloca [260 x i8], align 16
  %2 = ptrtoint [260 x i8]* %1 to i64
  %3 = getelementptr inbounds [260 x i8], [260 x i8]* %1, i64 0, i64 0
  %4 = alloca [260 x i8], align 16
  %5 = alloca [260 x i8], align 16
  %6 = alloca [260 x i8], align 16
  %7 = getelementptr inbounds [260 x i8], [260 x i8]* %6, i64 0, i64 0
  %8 = getelementptr inbounds [260 x i8], [260 x i8]* %1, i64 0, i64 0
  call void @llvm.lifetime.start.p0i8(i64 260, i8* nonnull %8) #9
  %9 = getelementptr inbounds [260 x i8], [260 x i8]* %4, i64 0, i64 0
  call void @llvm.lifetime.start.p0i8(i64 260, i8* nonnull %9) #9
  %10 = getelementptr inbounds [260 x i8], [260 x i8]* %5, i64 0, i64 0
  call void @llvm.lifetime.start.p0i8(i64 260, i8* nonnull %10) #9
  %11 = getelementptr inbounds [260 x i8], [260 x i8]* %6, i64 0, i64 0
  call void @llvm.lifetime.start.p0i8(i64 260, i8* nonnull %11) #9
  call void @_ZSt17__istream_extractRSiPcl(%"class.std::basic_istream"* nonnull align 8 dereferenceable(16) @_ZSt3cin, i8* nonnull %8, i64 260)
  call void @_ZSt17__istream_extractRSiPcl(%"class.std::basic_istream"* nonnull align 8 dereferenceable(16) @_ZSt3cin, i8* nonnull %9, i64 260)
  call void @_ZSt17__istream_extractRSiPcl(%"class.std::basic_istream"* nonnull align 8 dereferenceable(16) @_ZSt3cin, i8* nonnull %10, i64 260)
  %12 = call i8* @strstr(i8* noundef nonnull %8, i8* noundef nonnull %9) #10
  %13 = ptrtoint i8* %12 to i64
  %14 = icmp eq i8* %12, null
  br i1 %14, label %60, label %15

15:                                               ; preds = %0
  %16 = icmp eq i8* %8, %12
  br i1 %16, label %20, label %17

17:                                               ; preds = %15
  %18 = sub i64 %13, %2
  call void @llvm.memcpy.p0i8.p0i8.i64(i8* nonnull align 16 %7, i8* nonnull align 16 %3, i64 %18, i1 false)
  %19 = trunc i64 %18 to i32
  br label %20

20:                                               ; preds = %17, %15
  %21 = phi i32 [ 0, %15 ], [ %19, %17 ]
  %22 = load i8, i8* %10, align 16, !tbaa !5
  %23 = icmp eq i8 %22, 0
  br i1 %23, label %37, label %24

24:                                               ; preds = %20
  %25 = zext i32 %21 to i64
  br label %26

26:                                               ; preds = %24, %26
  %27 = phi i64 [ %25, %24 ], [ %31, %26 ]
  %28 = phi i8 [ %22, %24 ], [ %33, %26 ]
  %29 = phi i8* [ %10, %24 ], [ %30, %26 ]
  %30 = getelementptr inbounds i8, i8* %29, i64 1
  %31 = add nuw i64 %27, 1
  %32 = getelementptr inbounds [260 x i8], [260 x i8]* %6, i64 0, i64 %27
  store i8 %28, i8* %32, align 1, !tbaa !5
  %33 = load i8, i8* %30, align 1, !tbaa !5
  %34 = icmp eq i8 %33, 0
  br i1 %34, label %35, label %26, !llvm.loop !8

35:                                               ; preds = %26
  %36 = trunc i64 %31 to i32
  br label %37

37:                                               ; preds = %35, %20
  %38 = phi i32 [ %21, %20 ], [ %36, %35 ]
  %39 = call i64 @strlen(i8* noundef nonnull %9) #10
  %40 = getelementptr inbounds i8, i8* %12, i64 %39
  %41 = load i8, i8* %40, align 1, !tbaa !5
  %42 = icmp eq i8 %41, 0
  br i1 %42, label %56, label %43

43:                                               ; preds = %37
  %44 = zext i32 %38 to i64
  br label %45

45:                                               ; preds = %43, %45
  %46 = phi i64 [ %44, %43 ], [ %50, %45 ]
  %47 = phi i8 [ %41, %43 ], [ %52, %45 ]
  %48 = phi i8* [ %40, %43 ], [ %49, %45 ]
  %49 = getelementptr inbounds i8, i8* %48, i64 1
  %50 = add nuw i64 %46, 1
  %51 = getelementptr inbounds [260 x i8], [260 x i8]* %6, i64 0, i64 %46
  store i8 %47, i8* %51, align 1, !tbaa !5
  %52 = load i8, i8* %49, align 1, !tbaa !5
  %53 = icmp eq i8 %52, 0
  br i1 %53, label %54, label %45, !llvm.loop !10

54:                                               ; preds = %45
  %55 = trunc i64 %50 to i32
  br label %56

56:                                               ; preds = %54, %37
  %57 = phi i32 [ %38, %37 ], [ %55, %54 ]
  %58 = zext i32 %57 to i64
  %59 = getelementptr inbounds [260 x i8], [260 x i8]* %6, i64 0, i64 %58
  store i8 0, i8* %59, align 1, !tbaa !5
  br label %60

60:                                               ; preds = %0, %56
  %61 = phi i8* [ %11, %56 ], [ %8, %0 ]
  %62 = call i64 @strlen(i8* noundef nonnull dereferenceable(1) %61) #9
  %63 = call nonnull align 8 dereferenceable(8) %"class.std::basic_ostream"* @_ZSt16__ostream_insertIcSt11char_traitsIcEERSt13basic_ostreamIT_T0_ES6_PKS3_l(%"class.std::basic_ostream"* nonnull align 8 dereferenceable(8) @_ZSt4cout, i8* nonnull %61, i64 %62)
  %64 = load i8*, i8** bitcast (%"class.std::basic_ostream"* @_ZSt4cout to i8**), align 8, !tbaa !11
  %65 = getelementptr i8, i8* %64, i64 -24
  %66 = bitcast i8* %65 to i64*
  %67 = load i64, i64* %66, align 8
  %68 = add nsw i64 %67, 240
  %69 = getelementptr inbounds i8, i8* bitcast (%"class.std::basic_ostream"* @_ZSt4cout to i8*), i64 %68
  %70 = bitcast i8* %69 to %"class.std::ctype"**
  %71 = load %"class.std::ctype"*, %"class.std::ctype"** %70, align 8, !tbaa !13
  %72 = icmp eq %"class.std::ctype"* %71, null
  br i1 %72, label %73, label %74

73:                                               ; preds = %60
  call void @_ZSt16__throw_bad_castv() #11
  unreachable

74:                                               ; preds = %60
  %75 = getelementptr inbounds %"class.std::ctype", %"class.std::ctype"* %71, i64 0, i32 8
  %76 = load i8, i8* %75, align 8, !tbaa !17
  %77 = icmp eq i8 %76, 0
  br i1 %77, label %81, label %78

78:                                               ; preds = %74
  %79 = getelementptr inbounds %"class.std::ctype", %"class.std::ctype"* %71, i64 0, i32 9, i64 10
  %80 = load i8, i8* %79, align 1, !tbaa !5
  br label %87

81:                                               ; preds = %74
  call void @_ZNKSt5ctypeIcE13_M_widen_initEv(%"class.std::ctype"* nonnull align 8 dereferenceable(570) %71)
  %82 = bitcast %"class.std::ctype"* %71 to i8 (%"class.std::ctype"*, i8)***
  %83 = load i8 (%"class.std::ctype"*, i8)**, i8 (%"class.std::ctype"*, i8)*** %82, align 8, !tbaa !11
  %84 = getelementptr inbounds i8 (%"class.std::ctype"*, i8)*, i8 (%"class.std::ctype"*, i8)** %83, i64 6
  %85 = load i8 (%"class.std::ctype"*, i8)*, i8 (%"class.std::ctype"*, i8)** %84, align 8
  %86 = call signext i8 %85(%"class.std::ctype"* nonnull align 8 dereferenceable(570) %71, i8 signext 10)
  br label %87

87:                                               ; preds = %78, %81
  %88 = phi i8 [ %80, %78 ], [ %86, %81 ]
  %89 = call nonnull align 8 dereferenceable(8) %"class.std::basic_ostream"* @_ZNSo3putEc(%"class.std::basic_ostream"* nonnull align 8 dereferenceable(8) @_ZSt4cout, i8 signext %88)
  %90 = call nonnull align 8 dereferenceable(8) %"class.std::basic_ostream"* @_ZNSo5flushEv(%"class.std::basic_ostream"* nonnull align 8 dereferenceable(8) %89)
  call void @llvm.lifetime.end.p0i8(i64 260, i8* nonnull %11) #9
  call void @llvm.lifetime.end.p0i8(i64 260, i8* nonnull %10) #9
  call void @llvm.lifetime.end.p0i8(i64 260, i8* nonnull %9) #9
  call void @llvm.lifetime.end.p0i8(i64 260, i8* nonnull %8) #9
  ret i32 0
}

; Function Attrs: argmemonly mustprogress nofree nosync nounwind willreturn
declare void @llvm.lifetime.start.p0i8(i64 immarg, i8* nocapture) #4

; Function Attrs: argmemonly mustprogress nofree nounwind readonly willreturn
declare i8* @strstr(i8*, i8* nocapture) local_unnamed_addr #5

; Function Attrs: argmemonly mustprogress nofree nounwind readonly willreturn
declare i64 @strlen(i8* nocapture) local_unnamed_addr #5

; Function Attrs: argmemonly mustprogress nofree nosync nounwind willreturn
declare void @llvm.lifetime.end.p0i8(i64 immarg, i8* nocapture) #4

declare void @_ZSt17__istream_extractRSiPcl(%"class.std::basic_istream"* nonnull align 8 dereferenceable(16), i8*, i64) local_unnamed_addr #0

declare nonnull align 8 dereferenceable(8) %"class.std::basic_ostream"* @_ZSt16__ostream_insertIcSt11char_traitsIcEERSt13basic_ostreamIT_T0_ES6_PKS3_l(%"class.std::basic_ostream"* nonnull align 8 dereferenceable(8), i8*, i64) local_unnamed_addr #0

declare nonnull align 8 dereferenceable(8) %"class.std::basic_ostream"* @_ZNSo3putEc(%"class.std::basic_ostream"* nonnull align 8 dereferenceable(8), i8 signext) local_unnamed_addr #0

declare nonnull align 8 dereferenceable(8) %"class.std::basic_ostream"* @_ZNSo5flushEv(%"class.std::basic_ostream"* nonnull align 8 dereferenceable(8)) local_unnamed_addr #0

; Function Attrs: noreturn
declare void @_ZSt16__throw_bad_castv() local_unnamed_addr #6

declare void @_ZNKSt5ctypeIcE13_M_widen_initEv(%"class.std::ctype"* nonnull align 8 dereferenceable(570)) local_unnamed_addr #0

; Function Attrs: sspstrong uwtable
define internal void @_GLOBAL__sub_I_1174.cpp() #7 section ".text.startup" {
  tail call void @_ZNSt8ios_base4InitC1Ev(%"class.std::ios_base::Init"* nonnull align 1 dereferenceable(1) @_ZStL8__ioinit)
  %1 = tail call i32 @__cxa_atexit(void (i8*)* bitcast (void (%"class.std::ios_base::Init"*)* @_ZNSt8ios_base4InitD1Ev to void (i8*)*), i8* getelementptr inbounds (%"class.std::ios_base::Init", %"class.std::ios_base::Init"* @_ZStL8__ioinit, i64 0, i32 0), i8* nonnull @__dso_handle) #9
  ret void
}

; Function Attrs: argmemonly nofree nounwind willreturn
declare void @llvm.memcpy.p0i8.p0i8.i64(i8* noalias nocapture writeonly, i8* noalias nocapture readonly, i64, i1 immarg) #8


!llvm.module.flags = !{!0, !1, !2, !3}
!llvm.ident = !{!4}

!0 = !{i32 1, !"wchar_size", i32 4}
!1 = !{i32 7, !"PIC Level", i32 2}
!2 = !{i32 7, !"PIE Level", i32 2}
!3 = !{i32 7, !"uwtable", i32 1}
!4 = !{!"clang version 13.0.0"}
!5 = !{!6, !6, i64 0}
!6 = !{!"omnipotent char", !7, i64 0}
!7 = !{!"Simple C++ TBAA"}
!8 = distinct !{!8, !9}
!9 = !{!"llvm.loop.mustprogress"}
!10 = distinct !{!10, !9}
!11 = !{!12, !12, i64 0}
!12 = !{!"vtable pointer", !7, i64 0}
!13 = !{!14, !15, i64 240}
!14 = !{!"_ZTSSt9basic_iosIcSt11char_traitsIcEE", !15, i64 216, !6, i64 224, !16, i64 225, !15, i64 232, !15, i64 240, !15, i64 248, !15, i64 256}
!15 = !{!"any pointer", !6, i64 0}
!16 = !{!"bool", !6, i64 0}
!17 = !{!18, !6, i64 56}
!18 = !{!"_ZTSSt5ctypeIcE", !15, i64 16, !16, i64 24, !15, i64 32, !15, i64 40, !15, i64 48, !6, i64 56, !6, i64 57, !6, i64 313, !6, i64 569}
